target datalayout = "e-m:e-p270:32:32-p271:32:32-p272:64:64-i64:64-i128:128-f80:128-n8:16:32:64-S128"
target triple = "x86_64-pc-linux-gnu"

%struct.slurm_conf_t = type { i64, ptr, i16, ptr, ptr, ptr, ptr, ptr, i16, ptr, ptr, ptr, ptr, ptr, ptr, ptr, i16, ptr, ptr, ptr, ptr, i16, ptr, ptr, ptr, i64, ptr, ptr, ptr, ptr, i16, ptr, ptr, i16, i32, ptr, i32, ptr, i32, i32, ptr, ptr, i64, i64, ptr, i16, i16, ptr, i32, i32, ptr, i32, ptr, i32, i16, i16, i16, ptr, i16, i16, ptr, ptr, i32, i16, i16, ptr, i32, i16, ptr, ptr, ptr, ptr, i16, ptr, ptr, ptr, ptr, i32, ptr, ptr, ptr, ptr, i16, i16, ptr, i32, i32, i32, i16, i16, ptr, ptr, i16, ptr, ptr, i32, i32, i32, i32, i32, i64, i32, i32, i16, ptr, ptr, i32, ptr, ptr, ptr, i16, i32, ptr, ptr, i16, ptr, ptr, i32, i16, ptr, ptr, ptr, ptr, i32, i32, i16, i16, i32, ptr, i16, ptr, i32, i32, i32, i32, i32, i32, ptr, i16, ptr, ptr, i32, i16, ptr, i32, i16, i16, ptr, ptr, ptr, i16, ptr, ptr, ptr, ptr, i16, i16, ptr, i16, ptr, i16, ptr, i16, ptr, i16, ptr, ptr, ptr, ptr, i16, ptr, ptr, ptr, i32, ptr, i32, ptr, ptr, i16, ptr, ptr, i32, i16, ptr, ptr, i16, i16, ptr, i16, ptr, ptr, ptr, i32, ptr, i16, i16, ptr, ptr, ptr, ptr, ptr, ptr, ptr, ptr, i16, i32, i16, ptr, ptr, ptr, ptr, i32, ptr, ptr, ptr, i16, ptr, ptr, ptr, i16, ptr, i16, ptr, i16, i16, ptr }

@slurm_conf = external global %struct.slurm_conf_t, align 8
@.str.45 = private unnamed_addr constant [65 x i8] c"NET: %s: [%s] getsockopt(%d, IPPROTO_TCP, TCP_MAXSEG) failed: %m\00", align 1
@__func__.fd_get_maxmss = private unnamed_addr constant [14 x i8] c"fd_get_maxmss\00", align 1
@.str.46 = private unnamed_addr constant [57 x i8] c"NET: %s: [%s] getsockopt(%d, IPPROTO_TCP, TCP_MAXSEG)=%d\00", align 1
@.str.47 = private unnamed_addr constant [89 x i8] c"NET: %s: [%s] Rejecting invalid response from getsockopt(%d, IPPROTO_TCP, TCP_MAXSEG)=%d\00", align 1

; Function Attrs: nounwind uwtable
define dso_local i32 @fd_get_maxmss(i32 noundef %0, ptr noundef %1) #0 {
  %3 = alloca i32, align 4
  %4 = alloca ptr, align 8
  %5 = alloca i32, align 4
  %6 = alloca i32, align 4
  %7 = alloca ptr, align 8
  %8 = alloca ptr, align 8
  %9 = alloca ptr, align 8
  store i32 %0, ptr %3, align 4
  store ptr %1, ptr %4, align 8
  call void @llvm.lifetime.start.p0(i64 4, ptr %5) #10
  store i32 -2, ptr %5, align 4
  call void @llvm.lifetime.start.p0(i64 4, ptr %6) #10
  store i32 0, ptr %6, align 4
  %10 = load i32, ptr %3, align 4
  %11 = call i32 @getsockopt(i32 noundef %10, i32 noundef 6, i32 noundef 2, ptr noundef %5, ptr noundef %6) #10
  %12 = icmp ne i32 %11, 0
  br i1 %12, label %13, label %52

13:                                               ; preds = %2
  br label %14

14:                                               ; preds = %13
  %15 = load i64, ptr getelementptr inbounds nuw (%struct.slurm_conf_t, ptr @slurm_conf, i32 0, i32 42), align 8
  %16 = and i64 %15, 1024
  %17 = icmp ne i64 %16, 0
  br i1 %17, label %18, label %49

18:                                               ; preds = %14
  call void @llvm.lifetime.start.p0(i64 8, ptr %7) #10
  store ptr null, ptr %7, align 8
  %19 = load ptr, ptr %4, align 8
  %20 = icmp ne ptr %19, null
  br i1 %20, label %24, label %21

21:                                               ; preds = %18
  %22 = load i32, ptr %3, align 4
  %23 = call ptr @fd_resolve_path(i32 noundef %22)
  store ptr %23, ptr %7, align 8
  br label %24

24:                                               ; preds = %21, %18
  br label %25

25:                                               ; preds = %24
  %26 = load i64, ptr getelementptr inbounds nuw (%struct.slurm_conf_t, ptr @slurm_conf, i32 0, i32 42), align 8
  %27 = and i64 %26, 1024
  %28 = icmp ne i64 %27, 0
  br i1 %28, label %29, label %46

29:                                               ; preds = %25
  br label %30

30:                                               ; preds = %29
  %31 = call i32 @get_log_level()
  %32 = icmp sge i32 %31, 4
  br i1 %32, label %33, label %43

33:                                               ; preds = %30
  %34 = load ptr, ptr %4, align 8
  %35 = icmp ne ptr %34, null
  br i1 %35, label %36, label %38

36:                                               ; preds = %33
  %37 = load ptr, ptr %4, align 8
  br label %40

38:                                               ; preds = %33
  %39 = load ptr, ptr %7, align 8
  br label %40

40:                                               ; preds = %38, %36
  %41 = phi ptr [ %37, %36 ], [ %39, %38 ]
  %42 = load i32, ptr %3, align 4
  call void (i32, ptr, ...) @log_var(i32 noundef 4, ptr noundef @.str.45, ptr noundef @__func__.fd_get_maxmss, ptr noundef %41, i32 noundef %42)
  br label %43

43:                                               ; preds = %40, %30
  br label %44

44:                                               ; preds = %43
  br label %45

45:                                               ; preds = %44
  br label %46

46:                                               ; preds = %45, %25
  br label %47

47:                                               ; preds = %46
  br label %48

48:                                               ; preds = %47
  call void @slurm_xfree(ptr noundef %7)
  call void @llvm.lifetime.end.p0(i64 8, ptr %7) #10
  br label %49

49:                                               ; preds = %48, %14
  br label %50

50:                                               ; preds = %49
  br label %51

51:                                               ; preds = %50
  br label %92

52:                                               ; preds = %2
  br label %53

53:                                               ; preds = %52
  %54 = load i64, ptr getelementptr inbounds nuw (%struct.slurm_conf_t, ptr @slurm_conf, i32 0, i32 42), align 8
  %55 = and i64 %54, 1024
  %56 = icmp ne i64 %55, 0
  br i1 %56, label %57, label %89

57:                                               ; preds = %53
  call void @llvm.lifetime.start.p0(i64 8, ptr %8) #10
  store ptr null, ptr %8, align 8
  %58 = load ptr, ptr %4, align 8
  %59 = icmp ne ptr %58, null
  br i1 %59, label %63, label %60

60:                                               ; preds = %57
  %61 = load i32, ptr %3, align 4
  %62 = call ptr @fd_resolve_path(i32 noundef %61)
  store ptr %62, ptr %8, align 8
  br label %63

63:                                               ; preds = %60, %57
  br label %64

64:                                               ; preds = %63
  %65 = load i64, ptr getelementptr inbounds nuw (%struct.slurm_conf_t, ptr @slurm_conf, i32 0, i32 42), align 8
  %66 = and i64 %65, 1024
  %67 = icmp ne i64 %66, 0
  br i1 %67, label %68, label %86

68:                                               ; preds = %64
  br label %69

69:                                               ; preds = %68
  %70 = call i32 @get_log_level()
  %71 = icmp sge i32 %70, 4
  br i1 %71, label %72, label %83

72:                                               ; preds = %69
  %73 = load ptr, ptr %4, align 8
  %74 = icmp ne ptr %73, null
  br i1 %74, label %75, label %77

75:                                               ; preds = %72
  %76 = load ptr, ptr %4, align 8
  br label %79

77:                                               ; preds = %72
  %78 = load ptr, ptr %8, align 8
  br label %79

79:                                               ; preds = %77, %75
  %80 = phi ptr [ %76, %75 ], [ %78, %77 ]
  %81 = load i32, ptr %3, align 4
  %82 = load i32, ptr %5, align 4
  call void (i32, ptr, ...) @log_var(i32 noundef 4, ptr noundef @.str.46, ptr noundef @__func__.fd_get_maxmss, ptr noundef %80, i32 noundef %81, i32 noundef %82)
  br label %83

83:                                               ; preds = %79, %69
  br label %84

84:                                               ; preds = %83
  br label %85

85:                                               ; preds = %84
  br label %86

86:                                               ; preds = %85, %64
  br label %87

87:                                               ; preds = %86
  br label %88

88:                                               ; preds = %87
  call void @slurm_xfree(ptr noundef %8)
  call void @llvm.lifetime.end.p0(i64 8, ptr %8) #10
  br label %89

89:                                               ; preds = %88, %53
  br label %90

90:                                               ; preds = %89
  br label %91

91:                                               ; preds = %90
  br label %92

92:                                               ; preds = %91, %51
  %93 = load i32, ptr %5, align 4
  %94 = icmp slt i32 %93, 556
  br i1 %94, label %98, label %95

95:                                               ; preds = %92
  %96 = load i32, ptr %5, align 4
  %97 = icmp sgt i32 %96, 1073741824
  br i1 %97, label %98, label %138

98:                                               ; preds = %95, %92
  br label %99

99:                                               ; preds = %98
  %100 = load i64, ptr getelementptr inbounds nuw (%struct.slurm_conf_t, ptr @slurm_conf, i32 0, i32 42), align 8
  %101 = and i64 %100, 1024
  %102 = icmp ne i64 %101, 0
  br i1 %102, label %103, label %135

103:                                              ; preds = %99
  call void @llvm.lifetime.start.p0(i64 8, ptr %9) #10
  store ptr null, ptr %9, align 8
  %104 = load ptr, ptr %4, align 8
  %105 = icmp ne ptr %104, null
  br i1 %105, label %109, label %106

106:                                              ; preds = %103
  %107 = load i32, ptr %3, align 4
  %108 = call ptr @fd_resolve_path(i32 noundef %107)
  store ptr %108, ptr %9, align 8
  br label %109

109:                                              ; preds = %106, %103
  br label %110

110:                                              ; preds = %109
  %111 = load i64, ptr getelementptr inbounds nuw (%struct.slurm_conf_t, ptr @slurm_conf, i32 0, i32 42), align 8
  %112 = and i64 %111, 1024
  %113 = icmp ne i64 %112, 0
  br i1 %113, label %114, label %132

114:                                              ; preds = %110
  br label %115

115:                                              ; preds = %114
  %116 = call i32 @get_log_level()
  %117 = icmp sge i32 %116, 4
  br i1 %117, label %118, label %129

118:                                              ; preds = %115
  %119 = load ptr, ptr %4, align 8
  %120 = icmp ne ptr %119, null
  br i1 %120, label %121, label %123

121:                                              ; preds = %118
  %122 = load ptr, ptr %4, align 8
  br label %125

123:                                              ; preds = %118
  %124 = load ptr, ptr %9, align 8
  br label %125

125:                                              ; preds = %123, %121
  %126 = phi ptr [ %122, %121 ], [ %124, %123 ]
  %127 = load i32, ptr %3, align 4
  %128 = load i32, ptr %5, align 4
  call void (i32, ptr, ...) @log_var(i32 noundef 4, ptr noundef @.str.47, ptr noundef @__func__.fd_get_maxmss, ptr noundef %126, i32 noundef %127, i32 noundef %128)
  br label %129

129:                                              ; preds = %125, %115
  br label %130

130:                                              ; preds = %129
  br label %131

131:                                              ; preds = %130
  br label %132

132:                                              ; preds = %131, %110
  br label %133

133:                                              ; preds = %132
  br label %134

134:                                              ; preds = %133
  call void @slurm_xfree(ptr noundef %9)
  call void @llvm.lifetime.end.p0(i64 8, ptr %9) #10
  br label %135

135:                                              ; preds = %134, %99
  br label %136

136:                                              ; preds = %135
  br label %137

137:                                              ; preds = %136
  store i32 -2, ptr %5, align 4
  br label %138

138:                                              ; preds = %137, %95
  %139 = load i32, ptr %5, align 4
  call void @llvm.lifetime.end.p0(i64 4, ptr %6) #10
  call void @llvm.lifetime.end.p0(i64 4, ptr %5) #10
  ret i32 %139
}