; Function Attrs: nounwind uwtable
define dso_local range(i32 -2, 1073741825) i32 @fd_get_maxmss(i32 noundef %0, ptr noundef %1) local_unnamed_addr #0 {
  %3 = alloca i32, align 4
  %4 = alloca i32, align 4
  %5 = alloca ptr, align 8
  %6 = alloca ptr, align 8
  %7 = alloca ptr, align 8
  call void @llvm.lifetime.start.p0(i64 4, ptr nonnull %3) #10
  store i32 -2, ptr %3, align 4
  call void @llvm.lifetime.start.p0(i64 4, ptr nonnull %4) #10
  store i32 0, ptr %4, align 4
  %8 = call i32 @getsockopt(i32 noundef %0, i32 noundef 6, i32 noundef 2, ptr noundef nonnull %3, ptr noundef nonnull %4) #10
  %.not = icmp eq i32 %8, 0
  %9 = load i64, ptr getelementptr inbounds nuw (i8, ptr @slurm_conf, i64 320), align 8
  %10 = and i64 %9, 1024
  %.not16 = icmp eq i64 %10, 0
  br i1 %.not, label %21, label %11

11:                                               ; preds = %2
  br i1 %.not16, label %32, label %12

12:                                               ; preds = %11
  call void @llvm.lifetime.start.p0(i64 8, ptr nonnull %5) #10
  store ptr null, ptr %5, align 8
  %.not20 = icmp eq ptr %1, null
  br i1 %.not20, label %13, label %.thread

13:                                               ; preds = %12
  %14 = call ptr @fd_resolve_path(i32 noundef %0)
  store ptr %14, ptr %5, align 8
  %.pre = load i64, ptr getelementptr inbounds nuw (i8, ptr @slurm_conf, i64 320), align 8
  %.pre30 = and i64 %.pre, 1024
  %15 = icmp eq i64 %.pre30, 0
  br i1 %15, label %20, label %.thread

.thread:                                          ; preds = %12, %13
  %16 = phi ptr [ %14, %13 ], [ %1, %12 ]
  %17 = call i32 @get_log_level() #10
  %18 = icmp sgt i32 %17, 3
  br i1 %18, label %19, label %20

19:                                               ; preds = %.thread
  call void (i32, ptr, ...) @log_var(i32 noundef 4, ptr noundef nonnull @.str.45, ptr noundef nonnull @__func__.fd_get_maxmss, ptr noundef %16, i32 noundef %0) #10
  br label %20

20:                                               ; preds = %.thread, %19, %13
  call void @slurm_xfree(ptr noundef nonnull %5) #10
  call void @llvm.lifetime.end.p0(i64 8, ptr nonnull %5) #10
  br label %32

21:                                               ; preds = %2
  br i1 %.not16, label %32, label %22

22:                                               ; preds = %21
  call void @llvm.lifetime.start.p0(i64 8, ptr nonnull %6) #10
  store ptr null, ptr %6, align 8
  %.not17 = icmp eq ptr %1, null
  br i1 %.not17, label %23, label %.thread33

23:                                               ; preds = %22
  %24 = call ptr @fd_resolve_path(i32 noundef %0)
  store ptr %24, ptr %6, align 8
  %.pre25 = load i64, ptr getelementptr inbounds nuw (i8, ptr @slurm_conf, i64 320), align 8
  %.pre28 = and i64 %.pre25, 1024
  %25 = icmp eq i64 %.pre28, 0
  br i1 %25, label %31, label %.thread33

.thread33:                                        ; preds = %22, %23
  %26 = phi ptr [ %24, %23 ], [ %1, %22 ]
  %27 = call i32 @get_log_level() #10
  %28 = icmp sgt i32 %27, 3
  br i1 %28, label %29, label %31

29:                                               ; preds = %.thread33
  %30 = load i32, ptr %3, align 4
  call void (i32, ptr, ...) @log_var(i32 noundef 4, ptr noundef nonnull @.str.46, ptr noundef nonnull @__func__.fd_get_maxmss, ptr noundef %26, i32 noundef %0, i32 noundef %30) #10
  br label %31

31:                                               ; preds = %.thread33, %29, %23
  call void @slurm_xfree(ptr noundef nonnull %6) #10
  call void @llvm.lifetime.end.p0(i64 8, ptr nonnull %6) #10
  br label %32

32:                                               ; preds = %21, %31, %11, %20
  %33 = load i32, ptr %3, align 4
  %34 = add i32 %33, -1073741825
  %or.cond = icmp ult i32 %34, -1073741269
  br i1 %or.cond, label %35, label %48

35:                                               ; preds = %32
  %36 = load i64, ptr getelementptr inbounds nuw (i8, ptr @slurm_conf, i64 320), align 8
  %37 = and i64 %36, 1024
  %.not22 = icmp eq i64 %37, 0
  br i1 %.not22, label %48, label %38

38:                                               ; preds = %35
  call void @llvm.lifetime.start.p0(i64 8, ptr nonnull %7) #10
  store ptr null, ptr %7, align 8
  %.not23 = icmp eq ptr %1, null
  br i1 %.not23, label %39, label %.thread35

39:                                               ; preds = %38
  %40 = call ptr @fd_resolve_path(i32 noundef %0)
  store ptr %40, ptr %7, align 8
  %.pre26 = load i64, ptr getelementptr inbounds nuw (i8, ptr @slurm_conf, i64 320), align 8
  %.pre27 = and i64 %.pre26, 1024
  %41 = icmp eq i64 %.pre27, 0
  br i1 %41, label %47, label %.thread35

.thread35:                                        ; preds = %38, %39
  %42 = phi ptr [ %40, %39 ], [ %1, %38 ]
  %43 = call i32 @get_log_level() #10
  %44 = icmp sgt i32 %43, 3
  br i1 %44, label %45, label %47

45:                                               ; preds = %.thread35
  %46 = load i32, ptr %3, align 4
  call void (i32, ptr, ...) @log_var(i32 noundef 4, ptr noundef nonnull @.str.47, ptr noundef nonnull @__func__.fd_get_maxmss, ptr noundef %42, i32 noundef %0, i32 noundef %46) #10
  br label %47

47:                                               ; preds = %.thread35, %45, %39
  call void @slurm_xfree(ptr noundef nonnull %7) #10
  call void @llvm.lifetime.end.p0(i64 8, ptr nonnull %7) #10
  br label %48

48:                                               ; preds = %35, %47, %32
  %49 = phi i32 [ %33, %32 ], [ -2, %47 ], [ -2, %35 ]
  call void @llvm.lifetime.end.p0(i64 4, ptr nonnull %4) #10
  call void @llvm.lifetime.end.p0(i64 4, ptr nonnull %3) #10
  ret i32 %49
}